target datalayout = "e-m:e-p270:32:32-p271:32:32-p272:64:64-i64:64-i128:128-f80:128-n8:16:32:64-S128"
target triple = "x86_64-pc-linux-gnu"

%struct._PQconninfoOption = type { ptr, ptr, ptr, ptr, ptr, ptr, i32 }

; Function Attrs: nounwind uwtable
define void @PQconninfoFree(ptr noundef %0) #0 {
  %2 = alloca ptr, align 8
  %3 = alloca ptr, align 8
  store ptr %0, ptr %2, align 8
  %4 = load ptr, ptr %2, align 8
  %5 = icmp eq ptr %4, null
  br i1 %5, label %6, label %7

6:                                                ; preds = %1
  br label %24

7:                                                ; preds = %1
  call void @llvm.lifetime.start.p0(i64 8, ptr %3) #12
  %8 = load ptr, ptr %2, align 8
  store ptr %8, ptr %3, align 8
  br label %9

9:                                                ; preds = %19, %7
  %10 = load ptr, ptr %3, align 8
  %11 = getelementptr inbounds nuw %struct._PQconninfoOption, ptr %10, i32 0, i32 0
  %12 = load ptr, ptr %11, align 8
  %13 = icmp ne ptr %12, null
  br i1 %13, label %15, label %14

14:                                               ; preds = %9
  call void @llvm.lifetime.end.p0(i64 8, ptr %3) #12
  br label %22

15:                                               ; preds = %9
  %16 = load ptr, ptr %3, align 8
  %17 = getelementptr inbounds nuw %struct._PQconninfoOption, ptr %16, i32 0, i32 3
  %18 = load ptr, ptr %17, align 8
  call void @free(ptr noundef %18) #12
  br label %19

19:                                               ; preds = %15
  %20 = load ptr, ptr %3, align 8
  %21 = getelementptr inbounds nuw %struct._PQconninfoOption, ptr %20, i32 1
  store ptr %21, ptr %3, align 8
  br label %9, !llvm.loop !14

22:                                               ; preds = %14
  %23 = load ptr, ptr %2, align 8
  call void @free(ptr noundef %23) #12
  br label %24

24:                                               ; preds = %22, %6
  ret void
}