; Function Attrs: nounwind uwtable
define void @PQconninfoFree(ptr noundef captures(address_is_null) %0) local_unnamed_addr #0 {
  %2 = icmp eq ptr %0, null
  br i1 %2, label %8, label %.preheader

.preheader:                                       ; preds = %1
  %3 = load ptr, ptr %0, align 8
  %.not7 = icmp eq ptr %3, null
  br i1 %.not7, label %._crit_edge, label %.lr.ph

._crit_edge:                                      ; preds = %.lr.ph, %.preheader
  tail call void @free(ptr noundef %0) #25
  br label %8

.lr.ph:                                           ; preds = %.preheader, %.lr.ph
  %.08 = phi ptr [ %6, %.lr.ph ], [ %0, %.preheader ]
  %4 = getelementptr inbounds nuw i8, ptr %.08, i64 24
  %5 = load ptr, ptr %4, align 8
  tail call void @free(ptr noundef %5) #25
  %6 = getelementptr inbounds nuw i8, ptr %.08, i64 56
  %7 = load ptr, ptr %6, align 8
  %.not = icmp eq ptr %7, null
  br i1 %.not, label %._crit_edge, label %.lr.ph, !llvm.loop !6

8:                                                ; preds = %1, %._crit_edge
  ret void
}